target datalayout = "e-m:e-p270:32:32-p271:32:32-p272:64:64-i64:64-i128:128-f80:128-n8:16:32:64-S128"
target triple = "x86_64-pc-linux-gnu"

@q_scale_factor = internal global [4 x i32] [i32 100, i32 100, i32 100, i32 100], align 16
@.str.9 = private unnamed_addr constant [5 x i8] c"%d%c\00", align 1

; Function Attrs: nounwind uwtable
define internal void @jpeg_default_qtables(ptr noundef %0, i32 noundef %1) #0 {
  %3 = alloca ptr, align 8
  %4 = alloca i32, align 4
  store ptr %0, ptr %3, align 8, !tbaa !4
  store i32 %1, ptr %4, align 4, !tbaa !11
  %5 = load ptr, ptr %3, align 8, !tbaa !4
  %6 = load i32, ptr @q_scale_factor, align 16, !tbaa !11
  %7 = load i32, ptr %4, align 4, !tbaa !11
  call void @jpeg_add_quant_table(ptr noundef %5, i32 noundef 0, ptr noundef @std_luminance_quant_tbl, i32 noundef %6, i32 noundef %7)
  %8 = load ptr, ptr %3, align 8, !tbaa !4
  %9 = load i32, ptr getelementptr inbounds ([4 x i32], ptr @q_scale_factor, i64 0, i64 1), align 4, !tbaa !11
  %10 = load i32, ptr %4, align 4, !tbaa !11
  call void @jpeg_add_quant_table(ptr noundef %8, i32 noundef 1, ptr noundef @std_chrominance_quant_tbl, i32 noundef %9, i32 noundef %10)
  ret void
}

; Function Attrs: nounwind uwtable
define dso_local i32 @set_quality_ratings(ptr noundef %0, ptr noundef %1, i32 noundef %2) #0 {
  %4 = alloca i32, align 4
  %5 = alloca ptr, align 8
  %6 = alloca ptr, align 8
  %7 = alloca i32, align 4
  %8 = alloca i32, align 4
  %9 = alloca i32, align 4
  %10 = alloca i8, align 1
  %11 = alloca i32, align 4
  store ptr %0, ptr %5, align 8, !tbaa !4
  store ptr %1, ptr %6, align 8, !tbaa !9
  store i32 %2, ptr %7, align 4, !tbaa !11
  call void @llvm.lifetime.start.p0(i64 4, ptr %8) #6
  store i32 75, ptr %8, align 4, !tbaa !11
  call void @llvm.lifetime.start.p0(i64 4, ptr %9) #6
  call void @llvm.lifetime.start.p0(i64 1, ptr %10) #6
  store i32 0, ptr %9, align 4, !tbaa !11
  br label %12

12:                                               ; preds = %57, %3
  %13 = load i32, ptr %9, align 4, !tbaa !11
  %14 = icmp slt i32 %13, 4
  br i1 %14, label %15, label %60

15:                                               ; preds = %12
  %16 = load ptr, ptr %6, align 8, !tbaa !9
  %17 = load i8, ptr %16, align 1, !tbaa !60
  %18 = icmp ne i8 %17, 0
  br i1 %18, label %19, label %50

19:                                               ; preds = %15
  store i8 44, ptr %10, align 1, !tbaa !60
  %20 = load ptr, ptr %6, align 8, !tbaa !9
  %21 = call i32 (ptr, ptr, ...) @__isoc99_sscanf(ptr noundef %20, ptr noundef @.str.9, ptr noundef %8, ptr noundef %10) #6
  %22 = icmp slt i32 %21, 1
  br i1 %22, label %23, label %24

23:                                               ; preds = %19
  store i32 0, ptr %4, align 4
  store i32 1, ptr %11, align 4
  br label %63

24:                                               ; preds = %19
  %25 = load i8, ptr %10, align 1, !tbaa !60
  %26 = sext i8 %25 to i32
  %27 = icmp ne i32 %26, 44
  br i1 %27, label %28, label %29

28:                                               ; preds = %24
  store i32 0, ptr %4, align 4
  store i32 1, ptr %11, align 4
  br label %63

29:                                               ; preds = %24
  %30 = load i32, ptr %8, align 4, !tbaa !11
  %31 = call i32 @jpeg_quality_scaling(i32 noundef %30)
  %32 = load i32, ptr %9, align 4, !tbaa !11
  %33 = sext i32 %32 to i64
  %34 = getelementptr inbounds [4 x i32], ptr @q_scale_factor, i64 0, i64 %33
  store i32 %31, ptr %34, align 4, !tbaa !11
  br label %35

35:                                               ; preds = %48, %29
  %36 = load ptr, ptr %6, align 8, !tbaa !9
  %37 = load i8, ptr %36, align 1, !tbaa !60
  %38 = sext i8 %37 to i32
  %39 = icmp ne i32 %38, 0
  br i1 %39, label %40, label %46

40:                                               ; preds = %35
  %41 = load ptr, ptr %6, align 8, !tbaa !9
  %42 = getelementptr inbounds nuw i8, ptr %41, i32 1
  store ptr %42, ptr %6, align 8, !tbaa !9
  %43 = load i8, ptr %41, align 1, !tbaa !60
  %44 = sext i8 %43 to i32
  %45 = icmp ne i32 %44, 44
  br label %46

46:                                               ; preds = %40, %35
  %47 = phi i1 [ false, %35 ], [ %45, %40 ]
  br i1 %47, label %48, label %49

48:                                               ; preds = %46
  br label %35, !llvm.loop !61

49:                                               ; preds = %46
  br label %56

50:                                               ; preds = %15
  %51 = load i32, ptr %8, align 4, !tbaa !11
  %52 = call i32 @jpeg_quality_scaling(i32 noundef %51)
  %53 = load i32, ptr %9, align 4, !tbaa !11
  %54 = sext i32 %53 to i64
  %55 = getelementptr inbounds [4 x i32], ptr @q_scale_factor, i64 0, i64 %54
  store i32 %52, ptr %55, align 4, !tbaa !11
  br label %56

56:                                               ; preds = %50, %49
  br label %57

57:                                               ; preds = %56
  %58 = load i32, ptr %9, align 4, !tbaa !11
  %59 = add nsw i32 %58, 1
  store i32 %59, ptr %9, align 4, !tbaa !11
  br label %12, !llvm.loop !62

60:                                               ; preds = %12
  %61 = load ptr, ptr %5, align 8, !tbaa !4
  %62 = load i32, ptr %7, align 4, !tbaa !11
  call void @jpeg_default_qtables(ptr noundef %61, i32 noundef %62)
  store i32 1, ptr %4, align 4
  store i32 1, ptr %11, align 4
  br label %63

63:                                               ; preds = %60, %28, %23
  call void @llvm.lifetime.end.p0(i64 1, ptr %10) #6
  call void @llvm.lifetime.end.p0(i64 4, ptr %9) #6
  call void @llvm.lifetime.end.p0(i64 4, ptr %8) #6
  %64 = load i32, ptr %4, align 4
  ret i32 %64
}