; Function Attrs: nounwind uwtable
define dso_local range(i32 0, 2) i32 @set_quality_ratings(ptr noundef %0, ptr noundef readonly captures(none) %1, i32 noundef %2) local_unnamed_addr #0 {
  %4 = alloca i32, align 4
  %5 = alloca i8, align 1
  call void @llvm.lifetime.start.p0(i64 4, ptr nonnull %4) #8
  store i32 75, ptr %4, align 4, !tbaa !11
  call void @llvm.lifetime.start.p0(i64 1, ptr nonnull %5) #8
  br label %6

6:                                                ; preds = %3, %.critedge
  %indvars.iv = phi i64 [ 0, %3 ], [ %indvars.iv.next, %.critedge ]
  %.01116 = phi ptr [ %1, %3 ], [ %.2, %.critedge ]
  %7 = load i8, ptr %.01116, align 1, !tbaa !51
  %.not = icmp eq i8 %7, 0
  br i1 %.not, label %20, label %8

8:                                                ; preds = %6
  store i8 44, ptr %5, align 1, !tbaa !51
  %9 = call i32 (ptr, ptr, ...) @__isoc99_sscanf(ptr noundef nonnull %.01116, ptr noundef nonnull @.str.9, ptr noundef nonnull %4, ptr noundef nonnull %5) #8
  %10 = icmp sgt i32 %9, 0
  %11 = load i8, ptr %5, align 1
  %.not13 = icmp eq i8 %11, 44
  %or.cond = select i1 %10, i1 %.not13, i1 false
  br i1 %or.cond, label %12, label %.loopexit

12:                                               ; preds = %8
  %13 = load i32, ptr %4, align 4, !tbaa !11
  %14 = call i32 @jpeg_quality_scaling(i32 noundef %13) #8
  %15 = getelementptr inbounds nuw [4 x i32], ptr @q_scale_factor, i64 0, i64 %indvars.iv
  store i32 %14, ptr %15, align 4, !tbaa !11
  br label %16

16:                                               ; preds = %18, %12
  %.1 = phi ptr [ %.01116, %12 ], [ %19, %18 ]
  %17 = load i8, ptr %.1, align 1, !tbaa !51
  %.not14 = icmp eq i8 %17, 0
  br i1 %.not14, label %.critedge, label %18

18:                                               ; preds = %16
  %19 = getelementptr inbounds nuw i8, ptr %.1, i64 1
  %.not15 = icmp eq i8 %17, 44
  br i1 %.not15, label %.critedge, label %16, !llvm.loop !52

20:                                               ; preds = %6
  %21 = load i32, ptr %4, align 4, !tbaa !11
  %22 = call i32 @jpeg_quality_scaling(i32 noundef %21) #8
  %23 = getelementptr inbounds nuw [4 x i32], ptr @q_scale_factor, i64 0, i64 %indvars.iv
  store i32 %22, ptr %23, align 4, !tbaa !11
  br label %.critedge

.critedge:                                        ; preds = %16, %18, %20
  %.2 = phi ptr [ %.01116, %20 ], [ %.1, %16 ], [ %19, %18 ]
  %indvars.iv.next = add nuw nsw i64 %indvars.iv, 1
  %exitcond.not = icmp eq i64 %indvars.iv.next, 4
  br i1 %exitcond.not, label %24, label %6, !llvm.loop !53

24:                                               ; preds = %.critedge
  %25 = load i32, ptr @q_scale_factor, align 16, !tbaa !11
  call void @jpeg_add_quant_table(ptr noundef %0, i32 noundef 0, ptr noundef nonnull @std_luminance_quant_tbl, i32 noundef %25, i32 noundef %2) #8
  %26 = load i32, ptr getelementptr inbounds nuw (i8, ptr @q_scale_factor, i64 4), align 4, !tbaa !11
  call void @jpeg_add_quant_table(ptr noundef %0, i32 noundef 1, ptr noundef nonnull @std_chrominance_quant_tbl, i32 noundef %26, i32 noundef %2) #8
  br label %.loopexit

.loopexit:                                        ; preds = %8, %24
  %.010 = phi i32 [ 1, %24 ], [ 0, %8 ]
  call void @llvm.lifetime.end.p0(i64 1, ptr nonnull %5) #8
  call void @llvm.lifetime.end.p0(i64 4, ptr nonnull %4) #8
  ret i32 %.010
}